target datalayout = "e-m:e-p270:32:32-p271:32:32-p272:64:64-i64:64-i128:128-f80:128-n8:16:32:64-S128"
target triple = "x86_64-pc-linux-gnu"

%struct.Abc_Frame_t_ = type { ptr, ptr, ptr, ptr, ptr, ptr, ptr, ptr, ptr, ptr, i32, i32, i32, i32, i32, ptr, float, float, i32, i32, ptr, ptr, ptr, double, double, ptr, ptr, ptr, ptr, ptr, ptr, ptr, ptr, ptr, ptr, ptr, ptr, float, ptr, i32, ptr, ptr, ptr, ptr, ptr, i32, i32, i32, i32, i32, i32, ptr, ptr, ptr, ptr, ptr, ptr, i32, i32, ptr, ptr, ptr, ptr, ptr, ptr, ptr, ptr, ptr, ptr, ptr, ptr, ptr, ptr, ptr, ptr, ptr, ptr, ptr, ptr, ptr, ptr, ptr, ptr, ptr, ptr, ptr, ptr, ptr, ptr }
%struct.Vec_Ptr_t_ = type { i32, i32, ptr }

@globalUtilOptind = external global i32, align 4
@.str.65 = private unnamed_addr constant [2 x i8] c"h\00", align 1
@.str.68 = private unnamed_addr constant [10 x i8] c"%2d : %s\0A\00", align 1
@.str.69 = private unnamed_addr constant [27 x i8] c"usage: history [-h] <num>\0A\00", align 1
@.str.70 = private unnamed_addr constant [62 x i8] c"\09        lists the last commands entered on the command line\0A\00", align 1
@.str.71 = private unnamed_addr constant [34 x i8] c"\09-h    : print the command usage\0A\00", align 1
@.str.72 = private unnamed_addr constant [63 x i8] c"\09<num> : the maximum number of entries to show [default = %d]\0A\00", align 1

; Function Attrs: nounwind uwtable
define internal ptr @Vec_PtrEntry(ptr noundef %0, i32 noundef %1) #0 {
  %3 = alloca ptr, align 8
  %4 = alloca i32, align 4
  store ptr %0, ptr %3, align 8
  store i32 %1, ptr %4, align 4
  %5 = load ptr, ptr %3, align 8
  %6 = getelementptr inbounds %struct.Vec_Ptr_t_, ptr %5, i32 0, i32 2
  %7 = load ptr, ptr %6, align 8
  %8 = load i32, ptr %4, align 4
  %9 = sext i32 %8 to i64
  %10 = getelementptr inbounds ptr, ptr %7, i64 %9
  %11 = load ptr, ptr %10, align 8
  ret ptr %11
}

; Function Attrs: nounwind uwtable
define internal i32 @Abc_MaxInt(i32 noundef %0, i32 noundef %1) #0 {
  %3 = alloca i32, align 4
  %4 = alloca i32, align 4
  store i32 %0, ptr %3, align 4
  store i32 %1, ptr %4, align 4
  %5 = load i32, ptr %3, align 4
  %6 = load i32, ptr %4, align 4
  %7 = icmp sgt i32 %5, %6
  br i1 %7, label %8, label %10

8:                                                ; preds = %2
  %9 = load i32, ptr %3, align 4
  br label %12

10:                                               ; preds = %2
  %11 = load i32, ptr %4, align 4
  br label %12

12:                                               ; preds = %10, %8
  %13 = phi i32 [ %9, %8 ], [ %11, %10 ]
  ret i32 %13
}

; Function Attrs: nounwind uwtable
define internal i32 @Vec_PtrSize(ptr noundef %0) #0 {
  %2 = alloca ptr, align 8
  store ptr %0, ptr %2, align 8
  %3 = load ptr, ptr %2, align 8
  %4 = getelementptr inbounds %struct.Vec_Ptr_t_, ptr %3, i32 0, i32 1
  %5 = load i32, ptr %4, align 4
  ret i32 %5
}

; Function Attrs: nounwind uwtable
define internal i32 @CmdCommandHistory(ptr noundef %0, i32 noundef %1, ptr noundef %2) #0 {
  %4 = alloca i32, align 4
  %5 = alloca ptr, align 8
  %6 = alloca i32, align 4
  %7 = alloca ptr, align 8
  %8 = alloca ptr, align 8
  %9 = alloca i32, align 4
  %10 = alloca i32, align 4
  %11 = alloca i32, align 4
  store ptr %0, ptr %5, align 8
  store i32 %1, ptr %6, align 4
  store ptr %2, ptr %7, align 8
  store i32 20, ptr %11, align 4
  call void (...) @Extra_UtilGetoptReset()
  br label %12

12:                                               ; preds = %3
  %13 = load i32, ptr %6, align 4
  %14 = load ptr, ptr %7, align 8
  %15 = call i32 @Extra_UtilGetopt(i32 noundef %13, ptr noundef %14, ptr noundef @.str.65)
  store i32 %15, ptr %10, align 4
  %16 = icmp ne i32 %15, -1
  br i1 %16, label %17, label %21

17:                                               ; preds = %12
  %18 = load i32, ptr %10, align 4
  switch i32 %18, label %20 [
    i32 104, label %19
  ]

19:                                               ; preds = %17
  br label %78

20:                                               ; preds = %17
  br label %78

21:                                               ; preds = %12
  %22 = load i32, ptr %6, align 4
  %23 = load i32, ptr @globalUtilOptind, align 4
  %24 = add nsw i32 %23, 1
  %25 = icmp sgt i32 %22, %24
  br i1 %25, label %26, label %27

26:                                               ; preds = %21
  br label %78

27:                                               ; preds = %21
  %28 = load i32, ptr %6, align 4
  %29 = load i32, ptr @globalUtilOptind, align 4
  %30 = add nsw i32 %29, 1
  %31 = icmp eq i32 %28, %30
  br i1 %31, label %32, label %39

32:                                               ; preds = %27
  %33 = load ptr, ptr %7, align 8
  %34 = load i32, ptr @globalUtilOptind, align 4
  %35 = sext i32 %34 to i64
  %36 = getelementptr inbounds ptr, ptr %33, i64 %35
  %37 = load ptr, ptr %36, align 8
  %38 = call i32 @atoi(ptr noundef %37) #10
  store i32 %38, ptr %11, align 4
  br label %39

39:                                               ; preds = %32, %27
  %40 = load ptr, ptr %5, align 8
  %41 = getelementptr inbounds %struct.Abc_Frame_t_, ptr %40, i32 0, i32 5
  %42 = load ptr, ptr %41, align 8
  %43 = call i32 @Vec_PtrSize(ptr noundef %42)
  %44 = load i32, ptr %11, align 4
  %45 = sub nsw i32 %43, %44
  %46 = call i32 @Abc_MaxInt(i32 noundef 0, i32 noundef %45)
  store i32 %46, ptr %9, align 4
  br label %47

47:                                               ; preds = %74, %39
  %48 = load i32, ptr %9, align 4
  %49 = load ptr, ptr %5, align 8
  %50 = getelementptr inbounds %struct.Abc_Frame_t_, ptr %49, i32 0, i32 5
  %51 = load ptr, ptr %50, align 8
  %52 = call i32 @Vec_PtrSize(ptr noundef %51)
  %53 = icmp slt i32 %48, %52
  br i1 %53, label %54, label %60

54:                                               ; preds = %47
  %55 = load ptr, ptr %5, align 8
  %56 = getelementptr inbounds %struct.Abc_Frame_t_, ptr %55, i32 0, i32 5
  %57 = load ptr, ptr %56, align 8
  %58 = load i32, ptr %9, align 4
  %59 = call ptr @Vec_PtrEntry(ptr noundef %57, i32 noundef %58)
  store ptr %59, ptr %8, align 8
  br label %60

60:                                               ; preds = %54, %47
  %61 = phi i1 [ false, %47 ], [ true, %54 ]
  br i1 %61, label %62, label %77

62:                                               ; preds = %60
  %63 = load ptr, ptr %5, align 8
  %64 = getelementptr inbounds %struct.Abc_Frame_t_, ptr %63, i32 0, i32 20
  %65 = load ptr, ptr %64, align 8
  %66 = load ptr, ptr %5, align 8
  %67 = getelementptr inbounds %struct.Abc_Frame_t_, ptr %66, i32 0, i32 5
  %68 = load ptr, ptr %67, align 8
  %69 = call i32 @Vec_PtrSize(ptr noundef %68)
  %70 = load i32, ptr %9, align 4
  %71 = sub nsw i32 %69, %70
  %72 = load ptr, ptr %8, align 8
  %73 = call i32 (ptr, ptr, ...) @fprintf(ptr noundef %65, ptr noundef @.str.68, i32 noundef %71, ptr noundef %72) #9
  br label %74

74:                                               ; preds = %62
  %75 = load i32, ptr %9, align 4
  %76 = add nsw i32 %75, 1
  store i32 %76, ptr %9, align 4
  br label %47, !llvm.loop !12

77:                                               ; preds = %60
  store i32 0, ptr %4, align 4
  br label %96

78:                                               ; preds = %26, %20, %19
  %79 = load ptr, ptr %5, align 8
  %80 = getelementptr inbounds %struct.Abc_Frame_t_, ptr %79, i32 0, i32 21
  %81 = load ptr, ptr %80, align 8
  %82 = call i32 (ptr, ptr, ...) @fprintf(ptr noundef %81, ptr noundef @.str.69) #9
  %83 = load ptr, ptr %5, align 8
  %84 = getelementptr inbounds %struct.Abc_Frame_t_, ptr %83, i32 0, i32 21
  %85 = load ptr, ptr %84, align 8
  %86 = call i32 (ptr, ptr, ...) @fprintf(ptr noundef %85, ptr noundef @.str.70) #9
  %87 = load ptr, ptr %5, align 8
  %88 = getelementptr inbounds %struct.Abc_Frame_t_, ptr %87, i32 0, i32 21
  %89 = load ptr, ptr %88, align 8
  %90 = call i32 (ptr, ptr, ...) @fprintf(ptr noundef %89, ptr noundef @.str.71) #9
  %91 = load ptr, ptr %5, align 8
  %92 = getelementptr inbounds %struct.Abc_Frame_t_, ptr %91, i32 0, i32 21
  %93 = load ptr, ptr %92, align 8
  %94 = load i32, ptr %11, align 4
  %95 = call i32 (ptr, ptr, ...) @fprintf(ptr noundef %93, ptr noundef @.str.72, i32 noundef %94) #9
  store i32 1, ptr %4, align 4
  br label %96

96:                                               ; preds = %78, %77
  %97 = load i32, ptr %4, align 4
  ret i32 %97
}