; Function Attrs: nounwind uwtable
define internal range(i32 0, 2) i32 @CmdCommandHistory(ptr noundef readonly captures(none) %0, i32 noundef %1, ptr noundef %2) #0 {
  tail call void (...) @Extra_UtilGetoptReset() #17
  %4 = tail call i32 @Extra_UtilGetopt(i32 noundef %1, ptr noundef %2, ptr noundef nonnull @.str.65) #17
  %.not = icmp eq i32 %4, -1
  br i1 %.not, label %5, label %38

5:                                                ; preds = %3
  %6 = load i32, ptr @globalUtilOptind, align 4
  %7 = add nsw i32 %6, 1
  %8 = icmp sgt i32 %1, %7
  br i1 %8, label %38, label %9

9:                                                ; preds = %5
  %10 = icmp eq i32 %1, %7
  br i1 %10, label %11, label %16

11:                                               ; preds = %9
  %12 = sext i32 %6 to i64
  %13 = getelementptr inbounds ptr, ptr %2, i64 %12
  %14 = load ptr, ptr %13, align 8
  %15 = tail call i32 @atoi(ptr noundef %14) #19
  br label %16

16:                                               ; preds = %11, %9
  %.0 = phi i32 [ %15, %11 ], [ 20, %9 ]
  %17 = getelementptr inbounds nuw i8, ptr %0, i64 40
  %18 = load ptr, ptr %17, align 8
  %19 = getelementptr i8, ptr %18, i64 4
  %.val = load i32, ptr %19, align 4
  %20 = sub nsw i32 %.val, %.0
  %21 = tail call noundef range(i32 0, -2147483648) i32 @llvm.smax.i32(i32 %20, i32 0)
  %22 = icmp slt i32 %21, %.val
  br i1 %22, label %.lr.ph, label %.critedge

.lr.ph:                                           ; preds = %16
  %23 = getelementptr inbounds nuw i8, ptr %0, i64 128
  %24 = zext nneg i32 %21 to i64
  br label %25

25:                                               ; preds = %.lr.ph, %25
  %indvars.iv = phi i64 [ %24, %.lr.ph ], [ %indvars.iv.next, %25 ]
  %.val2530 = phi i32 [ %.val, %.lr.ph ], [ %.val25, %25 ]
  %26 = phi ptr [ %18, %.lr.ph ], [ %34, %25 ]
  %27 = getelementptr i8, ptr %26, i64 8
  %.val27 = load ptr, ptr %27, align 8
  %28 = getelementptr inbounds nuw ptr, ptr %.val27, i64 %indvars.iv
  %29 = load ptr, ptr %28, align 8
  %30 = load ptr, ptr %23, align 8
  %31 = trunc nuw nsw i64 %indvars.iv to i32
  %32 = sub nsw i32 %.val2530, %31
  %33 = tail call i32 (ptr, ptr, ...) @fprintf(ptr noundef %30, ptr noundef nonnull @.str.68, i32 noundef %32, ptr noundef %29) #17
  %indvars.iv.next = add nuw nsw i64 %indvars.iv, 1
  %34 = load ptr, ptr %17, align 8
  %35 = getelementptr i8, ptr %34, i64 4
  %.val25 = load i32, ptr %35, align 4
  %36 = trunc nuw i64 %indvars.iv.next to i32
  %37 = icmp sgt i32 %.val25, %36
  br i1 %37, label %25, label %.critedge, !llvm.loop !12

38:                                               ; preds = %5, %3
  %39 = getelementptr inbounds nuw i8, ptr %0, i64 136
  %40 = load ptr, ptr %39, align 8
  %41 = tail call i64 @fwrite(ptr nonnull @.str.69, i64 26, i64 1, ptr %40)
  %42 = load ptr, ptr %39, align 8
  %43 = tail call i64 @fwrite(ptr nonnull @.str.70, i64 61, i64 1, ptr %42)
  %44 = load ptr, ptr %39, align 8
  %45 = tail call i64 @fwrite(ptr nonnull @.str.71, i64 33, i64 1, ptr %44)
  %46 = load ptr, ptr %39, align 8
  %47 = tail call i32 (ptr, ptr, ...) @fprintf(ptr noundef %46, ptr noundef nonnull @.str.72, i32 noundef 20) #17
  br label %.critedge

.critedge:                                        ; preds = %25, %16, %38
  %.021 = phi i32 [ 1, %38 ], [ 0, %16 ], [ 0, %25 ]
  ret i32 %.021
}